; Function Attrs: mustprogress uwtable
define internal { double, double } @_ZL15imoll_s_forward5PJ_LPP8PJconsts(double %0, double %1, ptr noundef readonly captures(none) %2) #0 {
  %4 = getelementptr inbounds nuw i8, ptr %2, i64 88
  %5 = load ptr, ptr %4, align 8, !tbaa !40
  %6 = fcmp ult double %1, 0.000000e+00
  br i1 %6, label %10, label %7

7:                                                ; preds = %3
  %8 = fcmp ugt double %0, 0xBFE657184AE74487
  %9 = zext i1 %8 to i64
  br label %16

10:                                               ; preds = %3
  %11 = fcmp ugt double %0, 0xBFFBECDE5DA115A9
  br i1 %11, label %12, label %16

12:                                               ; preds = %10
  %13 = fcmp ugt double %0, 0xBFD657184AE74487
  br i1 %13, label %14, label %16

14:                                               ; preds = %12
  %15 = fcmp ugt double %0, 0x3FF657184AE74487
  %. = select i1 %15, i64 5, i64 4
  br label %16

16:                                               ; preds = %14, %12, %10, %7
  %.0 = phi i64 [ %9, %7 ], [ 2, %10 ], [ 3, %12 ], [ %., %14 ]
  %17 = getelementptr inbounds nuw [6 x ptr], ptr %5, i64 0, i64 %.0
  %18 = load ptr, ptr %17, align 8, !tbaa !41
  %19 = getelementptr inbounds nuw i8, ptr %18, i64 440
  %20 = load double, ptr %19, align 8, !tbaa !45
  %21 = fsub double %0, %20
  %22 = getelementptr inbounds nuw i8, ptr %18, i64 104
  %23 = load ptr, ptr %22, align 8, !tbaa !55
  %24 = tail call { double, double } %23(double %21, double %1, ptr noundef %18)
  %25 = extractvalue { double, double } %24, 0
  %26 = extractvalue { double, double } %24, 1
  %27 = load ptr, ptr %17, align 8, !tbaa !41
  %28 = getelementptr inbounds nuw i8, ptr %27, i64 456
  %29 = load double, ptr %28, align 8, !tbaa !43
  %30 = fadd double %25, %29
  %31 = getelementptr inbounds nuw i8, ptr %27, i64 464
  %32 = load double, ptr %31, align 8, !tbaa !44
  %33 = fadd double %26, %32
  %.fca.0.insert = insertvalue { double, double } poison, double %30, 0
  %.fca.1.insert = insertvalue { double, double } %.fca.0.insert, double %33, 1
  ret { double, double } %.fca.1.insert
}